target datalayout = "e-m:e-p270:32:32-p271:32:32-p272:64:64-i64:64-i128:128-f80:128-n8:16:32:64-S128"
target triple = "x86_64-pc-linux-gnu"

%union.pthread_mutex_t = type { %struct.__pthread_mutex_s }
%struct.__pthread_mutex_s = type { i32, i32, i32, i32, i32, i16, i16, %struct.__pthread_internal_list }
%struct.__pthread_internal_list = type { ptr, ptr }
%struct.pmix_tma = type { ptr, ptr, ptr, ptr, ptr, ptr, ptr, ptr }
%union.pthread_cond_t = type { %struct.__pthread_cond_s }
%struct.__pthread_cond_s = type { %union.__atomic_wide_counter, %union.__atomic_wide_counter, [2 x i32], [2 x i32], i32, i32, [2 x i32] }
%union.__atomic_wide_counter = type { i64 }
%struct.pmix_mca_base_framework_t = type { ptr, ptr, ptr, ptr, ptr, ptr, i32, i32, ptr, ptr, i32, i32, %struct.pmix_list_t, %struct.pmix_list_t }
%struct.pmix_list_t = type { %struct.pmix_object_t, %struct.pmix_list_item_t, i64 }
%struct.pmix_object_t = type { %union.pthread_mutex_t, ptr, i32, %struct.pmix_tma }
%struct.pmix_list_item_t = type { %struct.pmix_object_t, ptr, ptr, i32 }
%struct.pmix_output_desc_t = type { i8, i8, i32, i8, i32, ptr, ptr, i32, ptr, i32, i8, i8, i8, i8, ptr, i32, i32 }
%struct.pmix_lock_t = type { i32, %struct.pmix_mutex_t, %union.pthread_cond_t, i8 }
%struct.pmix_mutex_t = type { %struct.pmix_object_t, %union.pthread_mutex_t }
%struct.prte_odls_globals_t = type { i32, %struct.pmix_list_t, ptr, i32, i32, i32, ptr, ptr, i32, i8, %struct.pmix_lock_t, ptr }
%struct.prte_job_t = type { %struct.pmix_list_item_t, i32, ptr, ptr, [256 x i8], ptr, i32, i32, ptr, ptr, i32, i32, i32, i32, ptr, ptr, ptr, i32, i32, i32, i32, i32, i32, i32, %struct.pmix_proc, i32, i16, %struct.pmix_list_t, %struct.pmix_data_buffer, %struct.pmix_list_t, [256 x i8], i32, ptr, %struct.pmix_cli_result_t }
%struct.pmix_proc = type { [256 x i8], i32 }
%struct.pmix_data_buffer = type { ptr, ptr, ptr, i64, i64 }
%struct.pmix_cli_result_t = type { %struct.pmix_object_t, %struct.pmix_list_t, ptr }

@prte_event_base = external global ptr, align 8
@prte_persistent = external global i8, align 1
@prte_event_base_ptr = internal global ptr null, align 8
@pmix_output_info = external global [0 x %struct.pmix_output_desc_t], align 8
@.str = private unnamed_addr constant [24 x i8] c"START %d LAUNCH THREADS\00", align 1
@.str.1 = private unnamed_addr constant [13 x i8] c"PRTE-ODLS-%d\00", align 1

; Function Attrs: inlinehint nounwind uwtable
define internal void @pmix_mutex_unlock(ptr noundef %0) #2 {
  %2 = alloca ptr, align 8
  store ptr %0, ptr %2, align 8, !tbaa !34
  %3 = load ptr, ptr %2, align 8, !tbaa !34
  %4 = getelementptr inbounds nuw %struct.pmix_mutex_t, ptr %3, i32 0, i32 1
  %5 = call i32 @pthread_mutex_unlock(ptr noundef %4) #13
  ret void
}

; Function Attrs: inlinehint nounwind uwtable
define internal void @pmix_atomic_wmb() #2 {
  fence release
  ret void
}

; Function Attrs: inlinehint nounwind uwtable
define internal void @pmix_atomic_rmb() #2 {
  fence acquire
  ret void
}

; Function Attrs: inlinehint nounwind uwtable
define internal void @pmix_mutex_lock(ptr noundef %0) #2 {
  %2 = alloca ptr, align 8
  store ptr %0, ptr %2, align 8, !tbaa !34
  %3 = load ptr, ptr %2, align 8, !tbaa !34
  %4 = getelementptr inbounds nuw %struct.pmix_mutex_t, ptr %3, i32 0, i32 1
  %5 = call i32 @pthread_mutex_lock(ptr noundef %4) #13
  ret void
}

; Function Attrs: nounwind uwtable
define void @prte_odls_base_start_threads(ptr noundef %0) #0 {
  %2 = alloca ptr, align 8
  %3 = alloca i32, align 4
  %4 = alloca ptr, align 8
  %5 = alloca i32, align 4
  store ptr %0, ptr %2, align 8, !tbaa !36
  call void @llvm.lifetime.start.p0(i64 4, ptr %3) #13
  call void @llvm.lifetime.start.p0(i64 8, ptr %4) #13
  br label %6

6:                                                ; preds = %1
  call void @pmix_mutex_lock(ptr noundef getelementptr inbounds nuw (%struct.pmix_lock_t, ptr getelementptr inbounds nuw (%struct.prte_odls_globals_t, ptr @prte_odls_globals, i32 0, i32 10), i32 0, i32 1))
  br label %7

7:                                                ; preds = %10, %6
  %8 = load volatile i8, ptr getelementptr inbounds nuw (%struct.pmix_lock_t, ptr getelementptr inbounds nuw (%struct.prte_odls_globals_t, ptr @prte_odls_globals, i32 0, i32 10), i32 0, i32 3), align 8, !tbaa !3, !range !22, !noundef !23
  %9 = trunc i8 %8 to i1
  br i1 %9, label %10, label %12

10:                                               ; preds = %7
  %11 = call i32 @pthread_cond_wait(ptr noundef getelementptr inbounds nuw (%struct.pmix_lock_t, ptr getelementptr inbounds nuw (%struct.prte_odls_globals_t, ptr @prte_odls_globals, i32 0, i32 10), i32 0, i32 2), ptr noundef getelementptr inbounds nuw (%struct.pmix_mutex_t, ptr getelementptr inbounds nuw (%struct.pmix_lock_t, ptr getelementptr inbounds nuw (%struct.prte_odls_globals_t, ptr @prte_odls_globals, i32 0, i32 10), i32 0, i32 1), i32 0, i32 1))
  br label %7, !llvm.loop !37

12:                                               ; preds = %7
  call void @pmix_atomic_rmb()
  store volatile i8 1, ptr getelementptr inbounds nuw (%struct.pmix_lock_t, ptr getelementptr inbounds nuw (%struct.prte_odls_globals_t, ptr @prte_odls_globals, i32 0, i32 10), i32 0, i32 3), align 8, !tbaa !3
  br label %13

13:                                               ; preds = %12
  br label %14

14:                                               ; preds = %13
  %15 = load ptr, ptr getelementptr inbounds nuw (%struct.prte_odls_globals_t, ptr @prte_odls_globals, i32 0, i32 7), align 8, !tbaa !27
  %16 = icmp ne ptr null, %15
  br i1 %16, label %17, label %22

17:                                               ; preds = %14
  br label %18

18:                                               ; preds = %17
  store volatile i8 0, ptr getelementptr inbounds nuw (%struct.pmix_lock_t, ptr getelementptr inbounds nuw (%struct.prte_odls_globals_t, ptr @prte_odls_globals, i32 0, i32 10), i32 0, i32 3), align 8, !tbaa !3
  call void @pmix_atomic_wmb()
  %19 = call i32 @pthread_cond_broadcast(ptr noundef getelementptr inbounds nuw (%struct.pmix_lock_t, ptr getelementptr inbounds nuw (%struct.prte_odls_globals_t, ptr @prte_odls_globals, i32 0, i32 10), i32 0, i32 2)) #13
  call void @pmix_mutex_unlock(ptr noundef getelementptr inbounds nuw (%struct.pmix_lock_t, ptr getelementptr inbounds nuw (%struct.prte_odls_globals_t, ptr @prte_odls_globals, i32 0, i32 10), i32 0, i32 1))
  br label %20

20:                                               ; preds = %18
  br label %21

21:                                               ; preds = %20
  store i32 1, ptr %5, align 4
  br label %114

22:                                               ; preds = %14
  %23 = load i8, ptr @prte_persistent, align 1, !tbaa !38, !range !22, !noundef !23
  %24 = trunc i8 %23 to i1
  br i1 %24, label %25, label %27

25:                                               ; preds = %22
  %26 = load i32, ptr getelementptr inbounds nuw (%struct.prte_odls_globals_t, ptr @prte_odls_globals, i32 0, i32 3), align 8, !tbaa !39
  store i32 %26, ptr getelementptr inbounds nuw (%struct.prte_odls_globals_t, ptr @prte_odls_globals, i32 0, i32 4), align 4, !tbaa !26
  br label %55

27:                                               ; preds = %22
  store ptr null, ptr getelementptr inbounds nuw (%struct.prte_odls_globals_t, ptr @prte_odls_globals, i32 0, i32 7), align 8, !tbaa !27
  store i32 0, ptr getelementptr inbounds nuw (%struct.prte_odls_globals_t, ptr @prte_odls_globals, i32 0, i32 8), align 8, !tbaa !40
  %28 = load i32, ptr getelementptr inbounds nuw (%struct.prte_odls_globals_t, ptr @prte_odls_globals, i32 0, i32 4), align 4, !tbaa !26
  %29 = icmp eq i32 -1, %28
  br i1 %29, label %30, label %54

30:                                               ; preds = %27
  %31 = load ptr, ptr %2, align 8, !tbaa !36
  %32 = getelementptr inbounds nuw %struct.prte_job_t, ptr %31, i32 0, i32 25
  %33 = load i32, ptr %32, align 8, !tbaa !41
  %34 = load i32, ptr getelementptr inbounds nuw (%struct.prte_odls_globals_t, ptr @prte_odls_globals, i32 0, i32 5), align 8, !tbaa !50
  %35 = icmp slt i32 %33, %34
  br i1 %35, label %36, label %37

36:                                               ; preds = %30
  store i32 0, ptr getelementptr inbounds nuw (%struct.prte_odls_globals_t, ptr @prte_odls_globals, i32 0, i32 4), align 4, !tbaa !26
  br label %53

37:                                               ; preds = %30
  %38 = load ptr, ptr %2, align 8, !tbaa !36
  %39 = getelementptr inbounds nuw %struct.prte_job_t, ptr %38, i32 0, i32 25
  %40 = load i32, ptr %39, align 8, !tbaa !41
  %41 = udiv i32 %40, 8
  store i32 %41, ptr getelementptr inbounds nuw (%struct.prte_odls_globals_t, ptr @prte_odls_globals, i32 0, i32 4), align 4, !tbaa !26
  %42 = load i32, ptr getelementptr inbounds nuw (%struct.prte_odls_globals_t, ptr @prte_odls_globals, i32 0, i32 4), align 4, !tbaa !26
  %43 = icmp eq i32 0, %42
  br i1 %43, label %44, label %45

44:                                               ; preds = %37
  store i32 1, ptr getelementptr inbounds nuw (%struct.prte_odls_globals_t, ptr @prte_odls_globals, i32 0, i32 4), align 4, !tbaa !26
  br label %52

45:                                               ; preds = %37
  %46 = load i32, ptr getelementptr inbounds nuw (%struct.prte_odls_globals_t, ptr @prte_odls_globals, i32 0, i32 3), align 8, !tbaa !39
  %47 = load i32, ptr getelementptr inbounds nuw (%struct.prte_odls_globals_t, ptr @prte_odls_globals, i32 0, i32 4), align 4, !tbaa !26
  %48 = icmp slt i32 %46, %47
  br i1 %48, label %49, label %51

49:                                               ; preds = %45
  %50 = load i32, ptr getelementptr inbounds nuw (%struct.prte_odls_globals_t, ptr @prte_odls_globals, i32 0, i32 3), align 8, !tbaa !39
  store i32 %50, ptr getelementptr inbounds nuw (%struct.prte_odls_globals_t, ptr @prte_odls_globals, i32 0, i32 4), align 4, !tbaa !26
  br label %51

51:                                               ; preds = %49, %45
  br label %52

52:                                               ; preds = %51, %44
  br label %53

53:                                               ; preds = %52, %36
  br label %54

54:                                               ; preds = %53, %27
  br label %55

55:                                               ; preds = %54, %25
  %56 = load i32, ptr getelementptr inbounds nuw (%struct.prte_odls_globals_t, ptr @prte_odls_globals, i32 0, i32 4), align 4, !tbaa !26
  %57 = icmp eq i32 0, %56
  br i1 %57, label %58, label %68

58:                                               ; preds = %55
  %59 = load ptr, ptr @prte_event_base_ptr, align 8, !tbaa !51
  %60 = icmp eq ptr null, %59
  br i1 %60, label %61, label %66

61:                                               ; preds = %58
  %62 = call noalias ptr @malloc(i64 noundef 8) #14
  store ptr %62, ptr @prte_event_base_ptr, align 8, !tbaa !51
  %63 = load ptr, ptr @prte_event_base, align 8, !tbaa !32
  %64 = load ptr, ptr @prte_event_base_ptr, align 8, !tbaa !51
  %65 = getelementptr inbounds ptr, ptr %64, i64 0
  store ptr %63, ptr %65, align 8, !tbaa !32
  br label %66

66:                                               ; preds = %61, %58
  %67 = load ptr, ptr @prte_event_base_ptr, align 8, !tbaa !51
  store ptr %67, ptr getelementptr inbounds nuw (%struct.prte_odls_globals_t, ptr @prte_odls_globals, i32 0, i32 6), align 8, !tbaa !31
  br label %109

68:                                               ; preds = %55
  %69 = load i32, ptr getelementptr inbounds nuw (%struct.pmix_mca_base_framework_t, ptr @prte_odls_base_framework, i32 0, i32 11), align 4, !tbaa !52
  %70 = icmp sge i32 %69, 0
  br i1 %70, label %71, label %84

71:                                               ; preds = %68
  %72 = load i32, ptr getelementptr inbounds nuw (%struct.pmix_mca_base_framework_t, ptr @prte_odls_base_framework, i32 0, i32 11), align 4, !tbaa !52
  %73 = icmp slt i32 %72, 64
  br i1 %73, label %74, label %84

74:                                               ; preds = %71
  %75 = load i32, ptr getelementptr inbounds nuw (%struct.pmix_mca_base_framework_t, ptr @prte_odls_base_framework, i32 0, i32 11), align 4, !tbaa !52
  %76 = sext i32 %75 to i64
  %77 = getelementptr inbounds [0 x %struct.pmix_output_desc_t], ptr @pmix_output_info, i64 0, i64 %76
  %78 = getelementptr inbounds nuw %struct.pmix_output_desc_t, ptr %77, i32 0, i32 2
  %79 = load i32, ptr %78, align 4, !tbaa !55
  %80 = icmp sge i32 %79, 5
  br i1 %80, label %81, label %84

81:                                               ; preds = %74
  %82 = load i32, ptr getelementptr inbounds nuw (%struct.pmix_mca_base_framework_t, ptr @prte_odls_base_framework, i32 0, i32 11), align 4, !tbaa !52
  %83 = load i32, ptr getelementptr inbounds nuw (%struct.prte_odls_globals_t, ptr @prte_odls_globals, i32 0, i32 4), align 4, !tbaa !26
  call void (i32, ptr, ...) @pmix_output(i32 noundef %82, ptr noundef @.str, i32 noundef %83)
  br label %84

84:                                               ; preds = %81, %74, %71, %68
  %85 = load i32, ptr getelementptr inbounds nuw (%struct.prte_odls_globals_t, ptr @prte_odls_globals, i32 0, i32 4), align 4, !tbaa !26
  %86 = sext i32 %85 to i64
  %87 = mul i64 %86, 8
  %88 = call noalias ptr @malloc(i64 noundef %87) #14
  store ptr %88, ptr getelementptr inbounds nuw (%struct.prte_odls_globals_t, ptr @prte_odls_globals, i32 0, i32 6), align 8, !tbaa !31
  store i32 0, ptr %3, align 4, !tbaa !28
  br label %89

89:                                               ; preds = %105, %84
  %90 = load i32, ptr %3, align 4, !tbaa !28
  %91 = load i32, ptr getelementptr inbounds nuw (%struct.prte_odls_globals_t, ptr @prte_odls_globals, i32 0, i32 4), align 4, !tbaa !26
  %92 = icmp slt i32 %90, %91
  br i1 %92, label %93, label %108

93:                                               ; preds = %89
  %94 = load i32, ptr %3, align 4, !tbaa !28
  %95 = call i32 (ptr, ptr, ...) @pmix_asprintf(ptr noundef %4, ptr noundef @.str.1, i32 noundef %94)
  %96 = load ptr, ptr %4, align 8, !tbaa !29
  %97 = call ptr @prte_progress_thread_init(ptr noundef %96)
  %98 = load ptr, ptr getelementptr inbounds nuw (%struct.prte_odls_globals_t, ptr @prte_odls_globals, i32 0, i32 6), align 8, !tbaa !31
  %99 = load i32, ptr %3, align 4, !tbaa !28
  %100 = sext i32 %99 to i64
  %101 = getelementptr inbounds ptr, ptr %98, i64 %100
  store ptr %97, ptr %101, align 8, !tbaa !32
  %102 = load ptr, ptr %4, align 8, !tbaa !29
  %103 = call i32 @PMIx_Argv_append_nosize(ptr noundef getelementptr inbounds nuw (%struct.prte_odls_globals_t, ptr @prte_odls_globals, i32 0, i32 7), ptr noundef %102)
  %104 = load ptr, ptr %4, align 8, !tbaa !29
  call void @free(ptr noundef %104) #13
  br label %105

105:                                              ; preds = %93
  %106 = load i32, ptr %3, align 4, !tbaa !28
  %107 = add nsw i32 %106, 1
  store i32 %107, ptr %3, align 4, !tbaa !28
  br label %89, !llvm.loop !57

108:                                              ; preds = %89
  br label %109

109:                                              ; preds = %108, %66
  br label %110

110:                                              ; preds = %109
  store volatile i8 0, ptr getelementptr inbounds nuw (%struct.pmix_lock_t, ptr getelementptr inbounds nuw (%struct.prte_odls_globals_t, ptr @prte_odls_globals, i32 0, i32 10), i32 0, i32 3), align 8, !tbaa !3
  call void @pmix_atomic_wmb()
  %111 = call i32 @pthread_cond_broadcast(ptr noundef getelementptr inbounds nuw (%struct.pmix_lock_t, ptr getelementptr inbounds nuw (%struct.prte_odls_globals_t, ptr @prte_odls_globals, i32 0, i32 10), i32 0, i32 2)) #13
  call void @pmix_mutex_unlock(ptr noundef getelementptr inbounds nuw (%struct.pmix_lock_t, ptr getelementptr inbounds nuw (%struct.prte_odls_globals_t, ptr @prte_odls_globals, i32 0, i32 10), i32 0, i32 1))
  br label %112

112:                                              ; preds = %110
  br label %113

113:                                              ; preds = %112
  store i32 0, ptr %5, align 4
  br label %114

114:                                              ; preds = %113, %21
  call void @llvm.lifetime.end.p0(i64 8, ptr %4) #13
  call void @llvm.lifetime.end.p0(i64 4, ptr %3) #13
  %115 = load i32, ptr %5, align 4
  switch i32 %115, label %117 [
    i32 0, label %116
    i32 1, label %116
  ]

116:                                              ; preds = %114, %114
  ret void

117:                                              ; preds = %114
  unreachable
}