; Function Attrs: nounwind uwtable
define void @prte_odls_base_start_threads(ptr noundef readonly captures(none) %0) local_unnamed_addr #0 {
  %2 = alloca ptr, align 8
  call void @llvm.lifetime.start.p0(i64 8, ptr nonnull %2) #13
  %3 = tail call i32 @pthread_mutex_lock(ptr noundef nonnull getelementptr inbounds nuw (i8, ptr @prte_odls_globals, i64 456)) #13
  %4 = load volatile i8, ptr getelementptr inbounds nuw (i8, ptr @prte_odls_globals, i64 544), align 8, !tbaa !3, !range !22, !noundef !23
  %5 = trunc nuw i8 %4 to i1
  br i1 %5, label %.lr.ph, label %._crit_edge

.lr.ph:                                           ; preds = %1, %.lr.ph
  %6 = tail call i32 @pthread_cond_wait(ptr noundef nonnull getelementptr inbounds nuw (i8, ptr @prte_odls_globals, i64 496), ptr noundef nonnull getelementptr inbounds nuw (i8, ptr @prte_odls_globals, i64 456)) #13
  %7 = load volatile i8, ptr getelementptr inbounds nuw (i8, ptr @prte_odls_globals, i64 544), align 8, !tbaa !3, !range !22, !noundef !23
  %8 = trunc nuw i8 %7 to i1
  br i1 %8, label %.lr.ph, label %._crit_edge, !llvm.loop !33

._crit_edge:                                      ; preds = %.lr.ph, %1
  fence acquire
  store volatile i8 1, ptr getelementptr inbounds nuw (i8, ptr @prte_odls_globals, i64 544), align 8, !tbaa !3
  %9 = load ptr, ptr getelementptr inbounds nuw (i8, ptr @prte_odls_globals, i64 312), align 8, !tbaa !27
  %.not = icmp eq ptr %9, null
  br i1 %.not, label %13, label %10

10:                                               ; preds = %._crit_edge
  store volatile i8 0, ptr getelementptr inbounds nuw (i8, ptr @prte_odls_globals, i64 544), align 8, !tbaa !3
  fence release
  %11 = tail call i32 @pthread_cond_broadcast(ptr noundef nonnull getelementptr inbounds nuw (i8, ptr @prte_odls_globals, i64 496)) #13
  %12 = tail call i32 @pthread_mutex_unlock(ptr noundef nonnull getelementptr inbounds nuw (i8, ptr @prte_odls_globals, i64 456)) #13
  br label %72

13:                                               ; preds = %._crit_edge
  %14 = load i8, ptr @prte_persistent, align 1, !tbaa !34, !range !22, !noundef !23
  %15 = trunc nuw i8 %14 to i1
  br i1 %15, label %16, label %18

16:                                               ; preds = %13
  %17 = load i32, ptr getelementptr inbounds nuw (i8, ptr @prte_odls_globals, i64 288), align 8, !tbaa !35
  br label %.sink.split

18:                                               ; preds = %13
  store ptr null, ptr getelementptr inbounds nuw (i8, ptr @prte_odls_globals, i64 312), align 8, !tbaa !27
  store i32 0, ptr getelementptr inbounds nuw (i8, ptr @prte_odls_globals, i64 320), align 8, !tbaa !36
  %19 = load i32, ptr getelementptr inbounds nuw (i8, ptr @prte_odls_globals, i64 292), align 4, !tbaa !26
  %20 = icmp eq i32 %19, -1
  br i1 %20, label %21, label %32

21:                                               ; preds = %18
  %22 = getelementptr inbounds nuw i8, ptr %0, i64 784
  %23 = load i32, ptr %22, align 8, !tbaa !37
  %24 = load i32, ptr getelementptr inbounds nuw (i8, ptr @prte_odls_globals, i64 296), align 8, !tbaa !46
  %25 = icmp slt i32 %23, %24
  br i1 %25, label %.thread, label %26

.thread:                                          ; preds = %21
  store i32 0, ptr getelementptr inbounds nuw (i8, ptr @prte_odls_globals, i64 292), align 4, !tbaa !26
  br label %35

26:                                               ; preds = %21
  %27 = lshr i32 %23, 3
  store i32 %27, ptr getelementptr inbounds nuw (i8, ptr @prte_odls_globals, i64 292), align 4, !tbaa !26
  %28 = icmp ult i32 %23, 8
  br i1 %28, label %.thread11, label %29

.thread11:                                        ; preds = %26
  store i32 1, ptr getelementptr inbounds nuw (i8, ptr @prte_odls_globals, i64 292), align 4, !tbaa !26
  br label %43

29:                                               ; preds = %26
  %30 = load i32, ptr getelementptr inbounds nuw (i8, ptr @prte_odls_globals, i64 288), align 8, !tbaa !35
  %31 = icmp slt i32 %30, %27
  br i1 %31, label %.sink.split, label %32

.sink.split:                                      ; preds = %29, %16
  %.sink = phi i32 [ %17, %16 ], [ %30, %29 ]
  store i32 %.sink, ptr getelementptr inbounds nuw (i8, ptr @prte_odls_globals, i64 292), align 4, !tbaa !26
  br label %32

32:                                               ; preds = %.sink.split, %18, %29
  %33 = phi i32 [ %19, %18 ], [ %27, %29 ], [ %.sink, %.sink.split ]
  %34 = icmp eq i32 %33, 0
  br i1 %34, label %35, label %43

35:                                               ; preds = %.thread, %32
  %36 = load ptr, ptr @prte_event_base_ptr, align 8, !tbaa !47
  %37 = icmp eq ptr %36, null
  br i1 %37, label %38, label %41

38:                                               ; preds = %35
  %39 = tail call noalias dereferenceable_or_null(8) ptr @malloc(i64 noundef 8) #14
  store ptr %39, ptr @prte_event_base_ptr, align 8, !tbaa !47
  %40 = load ptr, ptr @prte_event_base, align 8, !tbaa !31
  store ptr %40, ptr %39, align 8, !tbaa !31
  br label %41

41:                                               ; preds = %38, %35
  %42 = phi ptr [ %39, %38 ], [ %36, %35 ]
  store ptr %42, ptr getelementptr inbounds nuw (i8, ptr @prte_odls_globals, i64 304), align 8, !tbaa !30
  br label %.loopexit

43:                                               ; preds = %.thread11, %32
  %44 = phi i32 [ 1, %.thread11 ], [ %33, %32 ]
  %45 = load i32, ptr getelementptr inbounds nuw (i8, ptr @prte_odls_base_framework, i64 76), align 4, !tbaa !48
  %or.cond = icmp ult i32 %45, 64
  br i1 %or.cond, label %46, label %52

46:                                               ; preds = %43
  %47 = zext nneg i32 %45 to i64
  %48 = getelementptr inbounds nuw [0 x %struct.pmix_output_desc_t], ptr @pmix_output_info, i64 0, i64 %47, i32 2
  %49 = load i32, ptr %48, align 4, !tbaa !51
  %50 = icmp sgt i32 %49, 4
  br i1 %50, label %51, label %52

51:                                               ; preds = %46
  tail call void (i32, ptr, ...) @pmix_output(i32 noundef %45, ptr noundef nonnull @.str, i32 noundef %44) #13
  %.pre = load i32, ptr getelementptr inbounds nuw (i8, ptr @prte_odls_globals, i64 292), align 4, !tbaa !26
  br label %52

52:                                               ; preds = %51, %46, %43
  %53 = phi i32 [ %.pre, %51 ], [ %44, %46 ], [ %44, %43 ]
  %54 = sext i32 %53 to i64
  %55 = shl nsw i64 %54, 3
  %56 = tail call noalias ptr @malloc(i64 noundef %55) #14
  store ptr %56, ptr getelementptr inbounds nuw (i8, ptr @prte_odls_globals, i64 304), align 8, !tbaa !30
  %57 = icmp sgt i32 %53, 0
  br i1 %57, label %.lr.ph14, label %.loopexit

.lr.ph14:                                         ; preds = %52, %.lr.ph14
  %indvars.iv = phi i64 [ %indvars.iv.next, %.lr.ph14 ], [ 0, %52 ]
  %58 = trunc nuw nsw i64 %indvars.iv to i32
  %59 = call i32 (ptr, ptr, ...) @pmix_asprintf(ptr noundef nonnull %2, ptr noundef nonnull @.str.1, i32 noundef %58) #13
  %60 = load ptr, ptr %2, align 8, !tbaa !28
  %61 = call ptr @prte_progress_thread_init(ptr noundef %60) #13
  %62 = load ptr, ptr getelementptr inbounds nuw (i8, ptr @prte_odls_globals, i64 304), align 8, !tbaa !30
  %63 = getelementptr inbounds nuw ptr, ptr %62, i64 %indvars.iv
  store ptr %61, ptr %63, align 8, !tbaa !31
  %64 = load ptr, ptr %2, align 8, !tbaa !28
  %65 = call i32 @PMIx_Argv_append_nosize(ptr noundef nonnull getelementptr inbounds nuw (i8, ptr @prte_odls_globals, i64 312), ptr noundef %64) #13
  %66 = load ptr, ptr %2, align 8, !tbaa !28
  call void @free(ptr noundef %66) #13
  %indvars.iv.next = add nuw nsw i64 %indvars.iv, 1
  %67 = load i32, ptr getelementptr inbounds nuw (i8, ptr @prte_odls_globals, i64 292), align 4, !tbaa !26
  %68 = sext i32 %67 to i64
  %69 = icmp slt i64 %indvars.iv.next, %68
  br i1 %69, label %.lr.ph14, label %.loopexit, !llvm.loop !53

.loopexit:                                        ; preds = %.lr.ph14, %52, %41
  store volatile i8 0, ptr getelementptr inbounds nuw (i8, ptr @prte_odls_globals, i64 544), align 8, !tbaa !3
  fence release
  %70 = call i32 @pthread_cond_broadcast(ptr noundef nonnull getelementptr inbounds nuw (i8, ptr @prte_odls_globals, i64 496)) #13
  %71 = call i32 @pthread_mutex_unlock(ptr noundef nonnull getelementptr inbounds nuw (i8, ptr @prte_odls_globals, i64 456)) #13
  br label %72

72:                                               ; preds = %.loopexit, %10
  call void @llvm.lifetime.end.p0(i64 8, ptr nonnull %2) #13
  ret void
}